target datalayout = "e-m:e-p270:32:32-p271:32:32-p272:64:64-i64:64-i128:128-f80:128-n8:16:32:64-S128"
target triple = "x86_64-pc-linux-gnu"

@.str = private unnamed_addr constant [32 x i8] c"../openssl/crypto/pem/pem_pk8.c\00", align 1
@.str.1 = private unnamed_addr constant [22 x i8] c"ENCRYPTED PRIVATE KEY\00", align 1
@.str.2 = private unnamed_addr constant [12 x i8] c"PRIVATE KEY\00", align 1
@.str.3 = private unnamed_addr constant [4 x i8] c"DER\00", align 1
@.str.4 = private unnamed_addr constant [4 x i8] c"PEM\00", align 1
@.str.5 = private unnamed_addr constant [15 x i8] c"PrivateKeyInfo\00", align 1
@__func__.do_pk8pkey = private unnamed_addr constant [11 x i8] c"do_pk8pkey\00", align 1

; Function Attrs: nounwind uwtable
define i32 @PEM_write_bio_PKCS8_PRIV_KEY_INFO(ptr noundef %0, ptr noundef %1) #0 {
  %3 = alloca ptr, align 8
  %4 = alloca ptr, align 8
  store ptr %0, ptr %3, align 8, !tbaa !3
  store ptr %1, ptr %4, align 8, !tbaa !19
  %5 = load ptr, ptr %3, align 8, !tbaa !3
  %6 = load ptr, ptr %4, align 8, !tbaa !19
  %7 = call i32 @PEM_ASN1_write_bio(ptr noundef @i2d_PKCS8_PRIV_KEY_INFO, ptr noundef @.str.2, ptr noundef %5, ptr noundef %6, ptr noundef null, ptr noundef null, i32 noundef 0, ptr noundef null, ptr noundef null)
  ret i32 %7
}

; Function Attrs: nounwind uwtable
define i32 @PEM_write_bio_PKCS8(ptr noundef %0, ptr noundef %1) #0 {
  %3 = alloca ptr, align 8
  %4 = alloca ptr, align 8
  store ptr %0, ptr %3, align 8, !tbaa !3
  store ptr %1, ptr %4, align 8, !tbaa !21
  %5 = load ptr, ptr %3, align 8, !tbaa !3
  %6 = load ptr, ptr %4, align 8, !tbaa !21
  %7 = call i32 @PEM_ASN1_write_bio(ptr noundef @i2d_X509_SIG, ptr noundef @.str.1, ptr noundef %5, ptr noundef %6, ptr noundef null, ptr noundef null, i32 noundef 0, ptr noundef null, ptr noundef null)
  ret i32 %7
}

; Function Attrs: nounwind uwtable
define internal i32 @do_pk8pkey(ptr noundef %0, ptr noundef %1, i32 noundef %2, i32 noundef %3, ptr noundef %4, ptr noundef %5, i32 noundef %6, ptr noundef %7, ptr noundef %8, ptr noundef %9) #0 {
  %11 = alloca i32, align 4
  %12 = alloca ptr, align 8
  %13 = alloca ptr, align 8
  %14 = alloca i32, align 4
  %15 = alloca i32, align 4
  %16 = alloca ptr, align 8
  %17 = alloca ptr, align 8
  %18 = alloca i32, align 4
  %19 = alloca ptr, align 8
  %20 = alloca ptr, align 8
  %21 = alloca ptr, align 8
  %22 = alloca i32, align 4
  %23 = alloca ptr, align 8
  %24 = alloca ptr, align 8
  %25 = alloca i32, align 4
  %26 = alloca ptr, align 8
  %27 = alloca ptr, align 8
  %28 = alloca ptr, align 8
  %29 = alloca [1024 x i8], align 16
  store ptr %0, ptr %12, align 8, !tbaa !3
  store ptr %1, ptr %13, align 8, !tbaa !8
  store i32 %2, ptr %14, align 4, !tbaa !10
  store i32 %3, ptr %15, align 4, !tbaa !10
  store ptr %4, ptr %16, align 8, !tbaa !15
  store ptr %5, ptr %17, align 8, !tbaa !12
  store i32 %6, ptr %18, align 4, !tbaa !10
  store ptr %7, ptr %19, align 8, !tbaa !14
  store ptr %8, ptr %20, align 8, !tbaa !14
  store ptr %9, ptr %21, align 8, !tbaa !12
  call void @llvm.lifetime.start.p0(i64 4, ptr %22) #4
  store i32 0, ptr %22, align 4, !tbaa !10
  call void @llvm.lifetime.start.p0(i64 8, ptr %23) #4
  %30 = load i32, ptr %14, align 4, !tbaa !10
  %31 = icmp ne i32 %30, 0
  %32 = select i1 %31, ptr @.str.3, ptr @.str.4
  store ptr %32, ptr %23, align 8, !tbaa !12
  call void @llvm.lifetime.start.p0(i64 8, ptr %24) #4
  %33 = load ptr, ptr %13, align 8, !tbaa !8
  %34 = load ptr, ptr %23, align 8, !tbaa !12
  %35 = load ptr, ptr %21, align 8, !tbaa !12
  %36 = call ptr @OSSL_ENCODER_CTX_new_for_pkey(ptr noundef %33, i32 noundef 135, ptr noundef %34, ptr noundef @.str.5, ptr noundef %35)
  store ptr %36, ptr %24, align 8, !tbaa !17
  %37 = load ptr, ptr %24, align 8, !tbaa !17
  %38 = icmp eq ptr %37, null
  br i1 %38, label %39, label %40

39:                                               ; preds = %10
  store i32 0, ptr %11, align 4
  store i32 1, ptr %25, align 4
  br label %181

40:                                               ; preds = %10
  %41 = load ptr, ptr %17, align 8, !tbaa !12
  %42 = icmp eq ptr %41, null
  br i1 %42, label %43, label %56

43:                                               ; preds = %40
  %44 = load ptr, ptr %19, align 8, !tbaa !14
  %45 = icmp eq ptr %44, null
  br i1 %45, label %46, label %56

46:                                               ; preds = %43
  %47 = load ptr, ptr %20, align 8, !tbaa !14
  %48 = icmp ne ptr %47, null
  br i1 %48, label %49, label %54

49:                                               ; preds = %46
  %50 = load ptr, ptr %20, align 8, !tbaa !14
  store ptr %50, ptr %17, align 8, !tbaa !12
  %51 = load ptr, ptr %20, align 8, !tbaa !14
  %52 = call i64 @strlen(ptr noundef %51) #5
  %53 = trunc i64 %52 to i32
  store i32 %53, ptr %18, align 4, !tbaa !10
  br label %55

54:                                               ; preds = %46
  store ptr @PEM_def_callback, ptr %19, align 8, !tbaa !14
  br label %55

55:                                               ; preds = %54, %49
  br label %56

56:                                               ; preds = %55, %43, %40
  %57 = load i32, ptr %15, align 4, !tbaa !10
  %58 = icmp eq i32 %57, -1
  br i1 %58, label %59, label %108

59:                                               ; preds = %56
  %60 = load ptr, ptr %24, align 8, !tbaa !17
  %61 = call i32 @OSSL_ENCODER_CTX_get_num_encoders(ptr noundef %60)
  %62 = icmp ne i32 %61, 0
  br i1 %62, label %63, label %108

63:                                               ; preds = %59
  store i32 1, ptr %22, align 4, !tbaa !10
  %64 = load ptr, ptr %16, align 8, !tbaa !15
  %65 = icmp ne ptr %64, null
  br i1 %65, label %66, label %97

66:                                               ; preds = %63
  store i32 0, ptr %22, align 4, !tbaa !10
  %67 = load ptr, ptr %24, align 8, !tbaa !17
  %68 = load ptr, ptr %16, align 8, !tbaa !15
  %69 = call ptr @EVP_CIPHER_get0_name(ptr noundef %68)
  %70 = call i32 @OSSL_ENCODER_CTX_set_cipher(ptr noundef %67, ptr noundef %69, ptr noundef null)
  %71 = icmp ne i32 %70, 0
  br i1 %71, label %72, label %96

72:                                               ; preds = %66
  call void @llvm.lifetime.start.p0(i64 8, ptr %26) #4
  %73 = load ptr, ptr %17, align 8, !tbaa !12
  store ptr %73, ptr %26, align 8, !tbaa !12
  store i32 1, ptr %22, align 4, !tbaa !10
  %74 = load ptr, ptr %17, align 8, !tbaa !12
  %75 = icmp ne ptr %74, null
  br i1 %75, label %76, label %84

76:                                               ; preds = %72
  %77 = load ptr, ptr %24, align 8, !tbaa !17
  %78 = load ptr, ptr %26, align 8, !tbaa !12
  %79 = load i32, ptr %18, align 4, !tbaa !10
  %80 = sext i32 %79 to i64
  %81 = call i32 @OSSL_ENCODER_CTX_set_passphrase(ptr noundef %77, ptr noundef %78, i64 noundef %80)
  %82 = icmp ne i32 %81, 0
  br i1 %82, label %84, label %83

83:                                               ; preds = %76
  store i32 0, ptr %22, align 4, !tbaa !10
  br label %95

84:                                               ; preds = %76, %72
  %85 = load ptr, ptr %19, align 8, !tbaa !14
  %86 = icmp ne ptr %85, null
  br i1 %86, label %87, label %94

87:                                               ; preds = %84
  %88 = load ptr, ptr %24, align 8, !tbaa !17
  %89 = load ptr, ptr %19, align 8, !tbaa !14
  %90 = load ptr, ptr %20, align 8, !tbaa !14
  %91 = call i32 @OSSL_ENCODER_CTX_set_pem_password_cb(ptr noundef %88, ptr noundef %89, ptr noundef %90)
  %92 = icmp ne i32 %91, 0
  br i1 %92, label %94, label %93

93:                                               ; preds = %87
  store i32 0, ptr %22, align 4, !tbaa !10
  br label %94

94:                                               ; preds = %93, %87, %84
  br label %95

95:                                               ; preds = %94, %83
  call void @llvm.lifetime.end.p0(i64 8, ptr %26) #4
  br label %96

96:                                               ; preds = %95, %66
  br label %97

97:                                               ; preds = %96, %63
  %98 = load i32, ptr %22, align 4, !tbaa !10
  %99 = icmp ne i32 %98, 0
  br i1 %99, label %100, label %105

100:                                              ; preds = %97
  %101 = load ptr, ptr %24, align 8, !tbaa !17
  %102 = load ptr, ptr %12, align 8, !tbaa !3
  %103 = call i32 @OSSL_ENCODER_to_bio(ptr noundef %101, ptr noundef %102)
  %104 = icmp ne i32 %103, 0
  br label %105

105:                                              ; preds = %100, %97
  %106 = phi i1 [ false, %97 ], [ %104, %100 ]
  %107 = zext i1 %106 to i32
  store i32 %107, ptr %22, align 4, !tbaa !10
  br label %178

108:                                              ; preds = %59, %56
  call void @llvm.lifetime.start.p0(i64 8, ptr %27) #4
  call void @llvm.lifetime.start.p0(i64 8, ptr %28) #4
  call void @llvm.lifetime.start.p0(i64 1024, ptr %29) #4
  store i32 0, ptr %22, align 4, !tbaa !10
  %109 = load ptr, ptr %13, align 8, !tbaa !8
  %110 = call ptr @EVP_PKEY2PKCS8(ptr noundef %109)
  store ptr %110, ptr %28, align 8, !tbaa !19
  %111 = icmp eq ptr %110, null
  br i1 %111, label %112, label %113

112:                                              ; preds = %108
  call void @ERR_new()
  call void @ERR_set_debug(ptr noundef @.str, i32 noundef 133, ptr noundef @__func__.do_pk8pkey)
  call void (i32, i32, ptr, ...) @ERR_set_error(i32 noundef 9, i32 noundef 115, ptr noundef null)
  br label %176

113:                                              ; preds = %108
  %114 = load ptr, ptr %16, align 8, !tbaa !15
  %115 = icmp ne ptr %114, null
  br i1 %115, label %119, label %116

116:                                              ; preds = %113
  %117 = load i32, ptr %15, align 4, !tbaa !10
  %118 = icmp ne i32 %117, -1
  br i1 %118, label %119, label %163

119:                                              ; preds = %116, %113
  %120 = load ptr, ptr %17, align 8, !tbaa !12
  %121 = icmp eq ptr %120, null
  br i1 %121, label %122, label %132

122:                                              ; preds = %119
  %123 = load ptr, ptr %19, align 8, !tbaa !14
  %124 = getelementptr inbounds [1024 x i8], ptr %29, i64 0, i64 0
  %125 = load ptr, ptr %20, align 8, !tbaa !14
  %126 = call i32 %123(ptr noundef %124, i32 noundef 1024, i32 noundef 1, ptr noundef %125)
  store i32 %126, ptr %18, align 4, !tbaa !10
  %127 = load i32, ptr %18, align 4, !tbaa !10
  %128 = icmp slt i32 %127, 0
  br i1 %128, label %129, label %130

129:                                              ; preds = %122
  call void @ERR_new()
  call void @ERR_set_debug(ptr noundef @.str, i32 noundef 140, ptr noundef @__func__.do_pk8pkey)
  call void (i32, i32, ptr, ...) @ERR_set_error(i32 noundef 9, i32 noundef 111, ptr noundef null)
  br label %176

130:                                              ; preds = %122
  %131 = getelementptr inbounds [1024 x i8], ptr %29, i64 0, i64 0
  store ptr %131, ptr %17, align 8, !tbaa !12
  br label %132

132:                                              ; preds = %130, %119
  %133 = load i32, ptr %15, align 4, !tbaa !10
  %134 = load ptr, ptr %16, align 8, !tbaa !15
  %135 = load ptr, ptr %17, align 8, !tbaa !12
  %136 = load i32, ptr %18, align 4, !tbaa !10
  %137 = load ptr, ptr %28, align 8, !tbaa !19
  %138 = call ptr @PKCS8_encrypt(i32 noundef %133, ptr noundef %134, ptr noundef %135, i32 noundef %136, ptr noundef null, i32 noundef 0, i32 noundef 0, ptr noundef %137)
  store ptr %138, ptr %27, align 8, !tbaa !21
  %139 = load ptr, ptr %17, align 8, !tbaa !12
  %140 = getelementptr inbounds [1024 x i8], ptr %29, i64 0, i64 0
  %141 = icmp eq ptr %139, %140
  br i1 %141, label %142, label %146

142:                                              ; preds = %132
  %143 = getelementptr inbounds [1024 x i8], ptr %29, i64 0, i64 0
  %144 = load i32, ptr %18, align 4, !tbaa !10
  %145 = sext i32 %144 to i64
  call void @OPENSSL_cleanse(ptr noundef %143, i64 noundef %145)
  br label %146

146:                                              ; preds = %142, %132
  %147 = load ptr, ptr %27, align 8, !tbaa !21
  %148 = icmp eq ptr %147, null
  br i1 %148, label %149, label %150

149:                                              ; preds = %146
  br label %176

150:                                              ; preds = %146
  %151 = load i32, ptr %14, align 4, !tbaa !10
  %152 = icmp ne i32 %151, 0
  br i1 %152, label %153, label %157

153:                                              ; preds = %150
  %154 = load ptr, ptr %12, align 8, !tbaa !3
  %155 = load ptr, ptr %27, align 8, !tbaa !21
  %156 = call i32 @i2d_PKCS8_bio(ptr noundef %154, ptr noundef %155)
  store i32 %156, ptr %22, align 4, !tbaa !10
  br label %161

157:                                              ; preds = %150
  %158 = load ptr, ptr %12, align 8, !tbaa !3
  %159 = load ptr, ptr %27, align 8, !tbaa !21
  %160 = call i32 @PEM_write_bio_PKCS8(ptr noundef %158, ptr noundef %159)
  store i32 %160, ptr %22, align 4, !tbaa !10
  br label %161

161:                                              ; preds = %157, %153
  %162 = load ptr, ptr %27, align 8, !tbaa !21
  call void @X509_SIG_free(ptr noundef %162)
  br label %175

163:                                              ; preds = %116
  %164 = load i32, ptr %14, align 4, !tbaa !10
  %165 = icmp ne i32 %164, 0
  br i1 %165, label %166, label %170

166:                                              ; preds = %163
  %167 = load ptr, ptr %12, align 8, !tbaa !3
  %168 = load ptr, ptr %28, align 8, !tbaa !19
  %169 = call i32 @i2d_PKCS8_PRIV_KEY_INFO_bio(ptr noundef %167, ptr noundef %168)
  store i32 %169, ptr %22, align 4, !tbaa !10
  br label %174

170:                                              ; preds = %163
  %171 = load ptr, ptr %12, align 8, !tbaa !3
  %172 = load ptr, ptr %28, align 8, !tbaa !19
  %173 = call i32 @PEM_write_bio_PKCS8_PRIV_KEY_INFO(ptr noundef %171, ptr noundef %172)
  store i32 %173, ptr %22, align 4, !tbaa !10
  br label %174

174:                                              ; preds = %170, %166
  br label %175

175:                                              ; preds = %174, %161
  br label %176

176:                                              ; preds = %175, %149, %129, %112
  %177 = load ptr, ptr %28, align 8, !tbaa !19
  call void @PKCS8_PRIV_KEY_INFO_free(ptr noundef %177)
  call void @llvm.lifetime.end.p0(i64 1024, ptr %29) #4
  call void @llvm.lifetime.end.p0(i64 8, ptr %28) #4
  call void @llvm.lifetime.end.p0(i64 8, ptr %27) #4
  br label %178

178:                                              ; preds = %176, %105
  %179 = load ptr, ptr %24, align 8, !tbaa !17
  call void @OSSL_ENCODER_CTX_free(ptr noundef %179)
  %180 = load i32, ptr %22, align 4, !tbaa !10
  store i32 %180, ptr %11, align 4
  store i32 1, ptr %25, align 4
  br label %181

181:                                              ; preds = %178, %39
  call void @llvm.lifetime.end.p0(i64 8, ptr %24) #4
  call void @llvm.lifetime.end.p0(i64 8, ptr %23) #4
  call void @llvm.lifetime.end.p0(i64 4, ptr %22) #4
  %182 = load i32, ptr %11, align 4
  ret i32 %182
}